; Function Attrs: mustprogress nounwind uwtable
define dso_local void @_ZN23cmCursesLongMessageFormD0Ev(ptr noundef nonnull align 8 dereferenceable(104) %0) unnamed_addr #3 align 2 personality ptr @__gxx_personality_v0 {
  store ptr getelementptr inbounds ({ [8 x ptr] }, ptr @_ZTV23cmCursesLongMessageForm, i64 0, i32 0, i64 2), ptr %0, align 8
  %2 = getelementptr inbounds i8, ptr %0, i64 88
  %3 = load ptr, ptr %2, align 8
  %.not.i = icmp eq ptr %3, null
  br i1 %.not.i, label %_ZN23cmCursesLongMessageFormD2Ev.exit, label %4

4:                                                ; preds = %1
  %5 = invoke i32 @free_field(ptr noundef nonnull %3)
          to label %_ZN23cmCursesLongMessageFormD2Ev.exit unwind label %6

6:                                                ; preds = %4
  %7 = landingpad { ptr, i32 }
          catch ptr null
  %8 = extractvalue { ptr, i32 } %7, 0
  tail call void @__clang_call_terminate(ptr %8) #14
  unreachable

_ZN23cmCursesLongMessageFormD2Ev.exit:            ; preds = %1, %4
  %9 = getelementptr inbounds i8, ptr %0, i64 48
  tail call void @_ZNSt7__cxx1112basic_stringIcSt11char_traitsIcESaIcEED1Ev(ptr noundef nonnull align 8 dereferenceable(32) %9) #13
  %10 = getelementptr inbounds i8, ptr %0, i64 16
  tail call void @_ZNSt7__cxx1112basic_stringIcSt11char_traitsIcESaIcEED1Ev(ptr noundef nonnull align 8 dereferenceable(32) %10) #13
  tail call void @_ZN12cmCursesFormD2Ev(ptr noundef nonnull align 8 dereferenceable(16) %0) #13
  tail call void @_ZdlPv(ptr noundef nonnull %0) #15
  ret void
}